target datalayout = "e-m:e-p270:32:32-p271:32:32-p272:64:64-i64:64-i128:128-f80:128-n8:16:32:64-S128"
target triple = "x86_64-pc-linux-gnu"

%struct.Saig_Tsim_t_ = type { ptr, i32, ptr, ptr, i32, i32, i32, ptr, ptr, i32 }
%struct.Aig_Man_t_ = type { ptr, ptr, ptr, ptr, ptr, ptr, ptr, %struct.Aig_Obj_t_, i32, i32, i32, i32, i32, i32, [7 x i32], i32, ptr, i32, ptr, i32, ptr, i32, i32, i32, ptr, i32, i32, i32, i32, i32, ptr, ptr, i32, ptr, ptr, i32, ptr, ptr, i32, i32, i32, ptr, ptr, ptr, ptr, ptr, ptr, ptr, ptr, ptr, ptr, ptr, ptr, ptr, ptr, i32, ptr, ptr, ptr, ptr, i32, i64, i64, i64, ptr, ptr }
%struct.Aig_Obj_t_ = type { %union.anon, ptr, ptr, i64, i32, i32, %union.anon.0 }
%union.anon = type { ptr }
%union.anon.0 = type { ptr }
%struct.Vec_Ptr_t_ = type { i32, i32, ptr }

; Function Attrs: inlinehint nounwind uwtable
define internal i32 @Abc_PrimeCudd(i32 noundef %0) #4 {
  %2 = alloca i32, align 4
  %3 = alloca i32, align 4
  %4 = alloca i32, align 4
  store i32 %0, ptr %2, align 4, !tbaa !22
  call void @llvm.lifetime.start.p0(i64 4, ptr %3) #9
  call void @llvm.lifetime.start.p0(i64 4, ptr %4) #9
  %5 = load i32, ptr %2, align 4, !tbaa !22
  %6 = add i32 %5, -1
  store i32 %6, ptr %2, align 4, !tbaa !22
  br label %7

7:                                                ; preds = %32, %1
  %8 = load i32, ptr %2, align 4, !tbaa !22
  %9 = add i32 %8, 1
  store i32 %9, ptr %2, align 4, !tbaa !22
  %10 = load i32, ptr %2, align 4, !tbaa !22
  %11 = and i32 %10, 1
  %12 = icmp ne i32 %11, 0
  br i1 %12, label %13, label %30

13:                                               ; preds = %7
  store i32 1, ptr %4, align 4, !tbaa !22
  store i32 3, ptr %3, align 4, !tbaa !22
  br label %14

14:                                               ; preds = %26, %13
  %15 = load i32, ptr %3, align 4, !tbaa !22
  %16 = load i32, ptr %3, align 4, !tbaa !22
  %17 = mul nsw i32 %15, %16
  %18 = load i32, ptr %2, align 4, !tbaa !22
  %19 = icmp ule i32 %17, %18
  br i1 %19, label %20, label %29

20:                                               ; preds = %14
  %21 = load i32, ptr %2, align 4, !tbaa !22
  %22 = load i32, ptr %3, align 4, !tbaa !22
  %23 = urem i32 %21, %22
  %24 = icmp eq i32 %23, 0
  br i1 %24, label %25, label %26

25:                                               ; preds = %20
  store i32 0, ptr %4, align 4, !tbaa !22
  br label %29

26:                                               ; preds = %20
  %27 = load i32, ptr %3, align 4, !tbaa !22
  %28 = add nsw i32 %27, 2
  store i32 %28, ptr %3, align 4, !tbaa !22
  br label %14, !llvm.loop !38

29:                                               ; preds = %25, %14
  br label %31

30:                                               ; preds = %7
  store i32 0, ptr %4, align 4, !tbaa !22
  br label %31

31:                                               ; preds = %30, %29
  br label %32

32:                                               ; preds = %31
  %33 = load i32, ptr %4, align 4, !tbaa !22
  %34 = icmp ne i32 %33, 0
  %35 = xor i1 %34, true
  br i1 %35, label %7, label %36, !llvm.loop !40

36:                                               ; preds = %32
  %37 = load i32, ptr %2, align 4, !tbaa !22
  call void @llvm.lifetime.end.p0(i64 4, ptr %4) #9
  call void @llvm.lifetime.end.p0(i64 4, ptr %3) #9
  ret i32 %37
}

; Function Attrs: inlinehint nounwind uwtable
define internal ptr @Vec_PtrAlloc(i32 noundef %0) #4 {
  %2 = alloca i32, align 4
  %3 = alloca ptr, align 8
  store i32 %0, ptr %2, align 4, !tbaa !22
  call void @llvm.lifetime.start.p0(i64 8, ptr %3) #9
  %4 = call noalias ptr @malloc(i64 noundef 16) #10
  store ptr %4, ptr %3, align 8, !tbaa !33
  %5 = load i32, ptr %2, align 4, !tbaa !22
  %6 = icmp sgt i32 %5, 0
  br i1 %6, label %7, label %11

7:                                                ; preds = %1
  %8 = load i32, ptr %2, align 4, !tbaa !22
  %9 = icmp slt i32 %8, 8
  br i1 %9, label %10, label %11

10:                                               ; preds = %7
  store i32 8, ptr %2, align 4, !tbaa !22
  br label %11

11:                                               ; preds = %10, %7, %1
  %12 = load ptr, ptr %3, align 8, !tbaa !33
  %13 = getelementptr inbounds nuw %struct.Vec_Ptr_t_, ptr %12, i32 0, i32 1
  store i32 0, ptr %13, align 4, !tbaa !34
  %14 = load i32, ptr %2, align 4, !tbaa !22
  %15 = load ptr, ptr %3, align 8, !tbaa !33
  %16 = getelementptr inbounds nuw %struct.Vec_Ptr_t_, ptr %15, i32 0, i32 0
  store i32 %14, ptr %16, align 8, !tbaa !36
  %17 = load ptr, ptr %3, align 8, !tbaa !33
  %18 = getelementptr inbounds nuw %struct.Vec_Ptr_t_, ptr %17, i32 0, i32 0
  %19 = load i32, ptr %18, align 8, !tbaa !36
  %20 = icmp ne i32 %19, 0
  br i1 %20, label %21, label %28

21:                                               ; preds = %11
  %22 = load ptr, ptr %3, align 8, !tbaa !33
  %23 = getelementptr inbounds nuw %struct.Vec_Ptr_t_, ptr %22, i32 0, i32 0
  %24 = load i32, ptr %23, align 8, !tbaa !36
  %25 = sext i32 %24 to i64
  %26 = mul i64 8, %25
  %27 = call noalias ptr @malloc(i64 noundef %26) #10
  br label %29

28:                                               ; preds = %11
  br label %29

29:                                               ; preds = %28, %21
  %30 = phi ptr [ %27, %21 ], [ null, %28 ]
  %31 = load ptr, ptr %3, align 8, !tbaa !33
  %32 = getelementptr inbounds nuw %struct.Vec_Ptr_t_, ptr %31, i32 0, i32 2
  store ptr %30, ptr %32, align 8, !tbaa !37
  %33 = load ptr, ptr %3, align 8, !tbaa !33
  call void @llvm.lifetime.end.p0(i64 8, ptr %3) #9
  ret ptr %33
}

; Function Attrs: inlinehint nounwind uwtable
define internal i32 @Abc_BitWordNum(i32 noundef %0) #4 {
  %2 = alloca i32, align 4
  store i32 %0, ptr %2, align 4, !tbaa !22
  %3 = load i32, ptr %2, align 4, !tbaa !22
  %4 = ashr i32 %3, 5
  %5 = load i32, ptr %2, align 4, !tbaa !22
  %6 = and i32 %5, 31
  %7 = icmp sgt i32 %6, 0
  %8 = zext i1 %7 to i32
  %9 = add nsw i32 %4, %8
  ret i32 %9
}

; Function Attrs: inlinehint nounwind uwtable
define internal i32 @Aig_ManRegNum(ptr noundef %0) #4 {
  %2 = alloca ptr, align 8
  store ptr %0, ptr %2, align 8, !tbaa !3
  %3 = load ptr, ptr %2, align 8, !tbaa !3
  %4 = getelementptr inbounds nuw %struct.Aig_Man_t_, ptr %3, i32 0, i32 8
  %5 = load i32, ptr %4, align 8, !tbaa !23
  ret i32 %5
}

; Function Attrs: nounwind uwtable
define ptr @Saig_TsiStart(ptr noundef %0) #0 {
  %2 = alloca ptr, align 8
  %3 = alloca ptr, align 8
  store ptr %0, ptr %2, align 8, !tbaa !3
  call void @llvm.lifetime.start.p0(i64 8, ptr %3) #9
  %4 = call noalias ptr @malloc(i64 noundef 72) #10
  store ptr %4, ptr %3, align 8, !tbaa !8
  %5 = load ptr, ptr %3, align 8, !tbaa !8
  call void @llvm.memset.p0.i64(ptr align 8 %5, i8 0, i64 72, i1 false)
  %6 = load ptr, ptr %2, align 8, !tbaa !3
  %7 = load ptr, ptr %3, align 8, !tbaa !8
  %8 = getelementptr inbounds nuw %struct.Saig_Tsim_t_, ptr %7, i32 0, i32 0
  store ptr %6, ptr %8, align 8, !tbaa !10
  %9 = load ptr, ptr %2, align 8, !tbaa !3
  %10 = call i32 @Aig_ManRegNum(ptr noundef %9)
  %11 = mul nsw i32 2, %10
  %12 = call i32 @Abc_BitWordNum(i32 noundef %11)
  %13 = load ptr, ptr %3, align 8, !tbaa !8
  %14 = getelementptr inbounds nuw %struct.Saig_Tsim_t_, ptr %13, i32 0, i32 1
  store i32 %12, ptr %14, align 8, !tbaa !17
  %15 = call ptr @Vec_PtrAlloc(i32 noundef 1000)
  %16 = load ptr, ptr %3, align 8, !tbaa !8
  %17 = getelementptr inbounds nuw %struct.Saig_Tsim_t_, ptr %16, i32 0, i32 2
  store ptr %15, ptr %17, align 8, !tbaa !18
  %18 = load ptr, ptr %3, align 8, !tbaa !8
  %19 = getelementptr inbounds nuw %struct.Saig_Tsim_t_, ptr %18, i32 0, i32 1
  %20 = load i32, ptr %19, align 8, !tbaa !17
  %21 = sext i32 %20 to i64
  %22 = mul i64 4, %21
  %23 = add i64 %22, 8
  %24 = trunc i64 %23 to i32
  %25 = call ptr @Aig_MmFixedStart(i32 noundef %24, i32 noundef 10000)
  %26 = load ptr, ptr %3, align 8, !tbaa !8
  %27 = getelementptr inbounds nuw %struct.Saig_Tsim_t_, ptr %26, i32 0, i32 3
  store ptr %25, ptr %27, align 8, !tbaa !19
  %28 = call i32 @Abc_PrimeCudd(i32 noundef 5000)
  %29 = load ptr, ptr %3, align 8, !tbaa !8
  %30 = getelementptr inbounds nuw %struct.Saig_Tsim_t_, ptr %29, i32 0, i32 9
  store i32 %28, ptr %30, align 8, !tbaa !20
  %31 = load ptr, ptr %3, align 8, !tbaa !8
  %32 = getelementptr inbounds nuw %struct.Saig_Tsim_t_, ptr %31, i32 0, i32 9
  %33 = load i32, ptr %32, align 8, !tbaa !20
  %34 = sext i32 %33 to i64
  %35 = mul i64 8, %34
  %36 = call noalias ptr @malloc(i64 noundef %35) #10
  %37 = load ptr, ptr %3, align 8, !tbaa !8
  %38 = getelementptr inbounds nuw %struct.Saig_Tsim_t_, ptr %37, i32 0, i32 8
  store ptr %36, ptr %38, align 8, !tbaa !21
  %39 = load ptr, ptr %3, align 8, !tbaa !8
  %40 = getelementptr inbounds nuw %struct.Saig_Tsim_t_, ptr %39, i32 0, i32 8
  %41 = load ptr, ptr %40, align 8, !tbaa !21
  %42 = load ptr, ptr %3, align 8, !tbaa !8
  %43 = getelementptr inbounds nuw %struct.Saig_Tsim_t_, ptr %42, i32 0, i32 9
  %44 = load i32, ptr %43, align 8, !tbaa !20
  %45 = sext i32 %44 to i64
  %46 = mul i64 8, %45
  call void @llvm.memset.p0.i64(ptr align 8 %41, i8 0, i64 %46, i1 false)
  %47 = load ptr, ptr %3, align 8, !tbaa !8
  call void @llvm.lifetime.end.p0(i64 8, ptr %3) #9
  ret ptr %47
}