; Function Attrs: nounwind uwtable
define noalias noundef ptr @Saig_TsiStart(ptr noundef %0) local_unnamed_addr #0 {
  %calloc18 = tail call dereferenceable_or_null(72) ptr @calloc(i64 1, i64 72)
  store ptr %0, ptr %calloc18, align 8, !tbaa !3
  %2 = getelementptr i8, ptr %0, i64 104
  %.val = load i32, ptr %2, align 8, !tbaa !14
  %3 = ashr i32 %.val, 4
  %4 = and i32 %.val, 15
  %5 = icmp ne i32 %4, 0
  %6 = zext i1 %5 to i32
  %7 = add nsw i32 %3, %6
  %8 = getelementptr inbounds nuw i8, ptr %calloc18, i64 8
  store i32 %7, ptr %8, align 8, !tbaa !24
  %9 = tail call noalias dereferenceable_or_null(16) ptr @malloc(i64 noundef 16) #20
  %10 = getelementptr inbounds nuw i8, ptr %9, i64 4
  store i32 0, ptr %10, align 4, !tbaa !25
  store i32 1000, ptr %9, align 8, !tbaa !27
  %11 = tail call noalias dereferenceable_or_null(8000) ptr @malloc(i64 noundef 8000) #20
  %12 = getelementptr inbounds nuw i8, ptr %9, i64 8
  store ptr %11, ptr %12, align 8, !tbaa !28
  %13 = getelementptr inbounds nuw i8, ptr %calloc18, i64 16
  store ptr %9, ptr %13, align 8, !tbaa !29
  %14 = shl nsw i32 %7, 2
  %15 = add nsw i32 %14, 8
  %16 = tail call ptr @Aig_MmFixedStart(i32 noundef %15, i32 noundef 10000) #21
  %17 = getelementptr inbounds nuw i8, ptr %calloc18, i64 24
  store ptr %16, ptr %17, align 8, !tbaa !30
  br label %.loopexit.i

.loopexit.i:                                      ; preds = %.loopexit.i.backedge, %1
  %.012.i = phi i32 [ 4999, %1 ], [ %18, %.loopexit.i.backedge ]
  %18 = add i32 %.012.i, 1
  %19 = and i32 %.012.i, 1
  %.not.not.i = icmp eq i32 %19, 0
  br i1 %.not.not.i, label %.preheader.i, label %.loopexit.i.backedge

.loopexit.i.backedge:                             ; preds = %.lr.ph.i, %.loopexit.i
  br label %.loopexit.i, !llvm.loop !31

.preheader.i:                                     ; preds = %.loopexit.i
  %.not15.i = icmp ult i32 %18, 9
  br i1 %.not15.i, label %Abc_PrimeCudd.exit, label %.lr.ph.i

20:                                               ; preds = %.lr.ph.i
  %21 = add nuw nsw i32 %.01116.i, 2
  %22 = mul nuw nsw i32 %21, %21
  %.not.i = icmp ugt i32 %22, %18
  br i1 %.not.i, label %Abc_PrimeCudd.exit, label %.lr.ph.i, !llvm.loop !33

.lr.ph.i:                                         ; preds = %.preheader.i, %20
  %.01116.i = phi i32 [ %21, %20 ], [ 3, %.preheader.i ]
  %23 = urem i32 %18, %.01116.i
  %24 = icmp eq i32 %23, 0
  br i1 %24, label %.loopexit.i.backedge, label %20, !llvm.loop !31

Abc_PrimeCudd.exit:                               ; preds = %.preheader.i, %20
  %25 = getelementptr inbounds nuw i8, ptr %calloc18, i64 64
  store i32 %18, ptr %25, align 8, !tbaa !34
  %26 = sext i32 %18 to i64
  %27 = shl nsw i64 %26, 3
  %calloc = tail call ptr @calloc(i64 1, i64 %27)
  %28 = getelementptr inbounds nuw i8, ptr %calloc18, i64 56
  store ptr %calloc, ptr %28, align 8, !tbaa !35
  ret ptr %calloc18
}